; ModuleID = '32/2174.c'
source_filename = "32/2174.c"
target datalayout = "e-m:e-p270:32:32-p271:32:32-p272:64:64-i64:64-f80:128-n8:16:32:64-S128"
target triple = "x86_64-pc-linux-gnu"

@.str = private unnamed_addr constant [3 x i8] c"%d\00", align 1
@.str.1 = private unnamed_addr constant [6 x i8] c"%s %s\00", align 1
@.str.2 = private unnamed_addr constant [4 x i8] c"%s\0A\00", align 1

; Function Attrs: noinline nounwind uwtable
define dso_local void @main() #0 {
  %1 = alloca i32, align 4
  %2 = alloca i32, align 4
  %3 = alloca i32, align 4
  %4 = alloca i32, align 4
  %5 = alloca [100 x [100 x i8]], align 16
  %6 = alloca [100 x [100 x i8]], align 16
  %7 = alloca [100 x [100 x i8]], align 16
  %8 = alloca i32, align 4
  %9 = alloca i32, align 4
  store i32 0, i32* %3, align 4
  store i32 0, i32* %4, align 4
  %10 = bitcast [100 x [100 x i8]]* %7 to i8*
  call void @llvm.memset.p0i8.i64(i8* align 16 %10, i8 0, i64 10000, i1 false)
  %11 = call i32 (i8*, ...) @__isoc99_scanf(i8* getelementptr inbounds ([3 x i8], [3 x i8]* @.str, i64 0, i64 0), i32* %1)
  store i32 0, i32* %2, align 4
  br label %12

12:                                               ; preds = %222, %0
  %13 = load i32, i32* %2, align 4
  %14 = load i32, i32* %1, align 4
  %15 = icmp slt i32 %13, %14
  br i1 %15, label %16, label %225

16:                                               ; preds = %12
  %17 = load i32, i32* %2, align 4
  %18 = sext i32 %17 to i64
  %19 = getelementptr inbounds [100 x [100 x i8]], [100 x [100 x i8]]* %5, i64 0, i64 %18
  %20 = getelementptr inbounds [100 x i8], [100 x i8]* %19, i64 0, i64 0
  %21 = load i32, i32* %2, align 4
  %22 = sext i32 %21 to i64
  %23 = getelementptr inbounds [100 x [100 x i8]], [100 x [100 x i8]]* %6, i64 0, i64 %22
  %24 = getelementptr inbounds [100 x i8], [100 x i8]* %23, i64 0, i64 0
  %25 = call i32 (i8*, ...) @__isoc99_scanf(i8* getelementptr inbounds ([6 x i8], [6 x i8]* @.str.1, i64 0, i64 0), i8* %20, i8* %24)
  %26 = load i32, i32* %2, align 4
  %27 = sext i32 %26 to i64
  %28 = getelementptr inbounds [100 x [100 x i8]], [100 x [100 x i8]]* %5, i64 0, i64 %27
  %29 = getelementptr inbounds [100 x i8], [100 x i8]* %28, i64 0, i64 0
  %30 = call i64 @strlen(i8* %29) #4
  %31 = trunc i64 %30 to i32
  store i32 %31, i32* %8, align 4
  %32 = load i32, i32* %2, align 4
  %33 = sext i32 %32 to i64
  %34 = getelementptr inbounds [100 x [100 x i8]], [100 x [100 x i8]]* %6, i64 0, i64 %33
  %35 = getelementptr inbounds [100 x i8], [100 x i8]* %34, i64 0, i64 0
  %36 = call i64 @strlen(i8* %35) #4
  %37 = trunc i64 %36 to i32
  store i32 %37, i32* %9, align 4
  %38 = load i32, i32* %8, align 4
  %39 = sub nsw i32 %38, 1
  store i32 %39, i32* %3, align 4
  %40 = load i32, i32* %9, align 4
  %41 = sub nsw i32 %40, 1
  store i32 %41, i32* %4, align 4
  br label %42

42:                                               ; preds = %143, %16
  %43 = load i32, i32* %3, align 4
  %44 = load i32, i32* %8, align 4
  %45 = load i32, i32* %9, align 4
  %46 = sub nsw i32 %44, %45
  %47 = icmp sge i32 %43, %46
  %48 = zext i1 %47 to i32
  %49 = load i32, i32* %4, align 4
  %50 = icmp sge i32 %49, 0
  br i1 %50, label %51, label %148

51:                                               ; preds = %42
  %52 = load i32, i32* %2, align 4
  %53 = sext i32 %52 to i64
  %54 = getelementptr inbounds [100 x [100 x i8]], [100 x [100 x i8]]* %5, i64 0, i64 %53
  %55 = load i32, i32* %3, align 4
  %56 = sext i32 %55 to i64
  %57 = getelementptr inbounds [100 x i8], [100 x i8]* %54, i64 0, i64 %56
  %58 = load i8, i8* %57, align 1
  %59 = sext i8 %58 to i32
  %60 = load i32, i32* %2, align 4
  %61 = sext i32 %60 to i64
  %62 = getelementptr inbounds [100 x [100 x i8]], [100 x [100 x i8]]* %6, i64 0, i64 %61
  %63 = load i32, i32* %4, align 4
  %64 = sext i32 %63 to i64
  %65 = getelementptr inbounds [100 x i8], [100 x i8]* %62, i64 0, i64 %64
  %66 = load i8, i8* %65, align 1
  %67 = sext i8 %66 to i32
  %68 = sub nsw i32 %59, %67
  %69 = icmp sge i32 %68, 0
  br i1 %69, label %70, label %96

70:                                               ; preds = %51
  %71 = load i32, i32* %2, align 4
  %72 = sext i32 %71 to i64
  %73 = getelementptr inbounds [100 x [100 x i8]], [100 x [100 x i8]]* %5, i64 0, i64 %72
  %74 = load i32, i32* %3, align 4
  %75 = sext i32 %74 to i64
  %76 = getelementptr inbounds [100 x i8], [100 x i8]* %73, i64 0, i64 %75
  %77 = load i8, i8* %76, align 1
  %78 = sext i8 %77 to i32
  %79 = load i32, i32* %2, align 4
  %80 = sext i32 %79 to i64
  %81 = getelementptr inbounds [100 x [100 x i8]], [100 x [100 x i8]]* %6, i64 0, i64 %80
  %82 = load i32, i32* %4, align 4
  %83 = sext i32 %82 to i64
  %84 = getelementptr inbounds [100 x i8], [100 x i8]* %81, i64 0, i64 %83
  %85 = load i8, i8* %84, align 1
  %86 = sext i8 %85 to i32
  %87 = sub nsw i32 %78, %86
  %88 = add nsw i32 %87, 48
  %89 = trunc i32 %88 to i8
  %90 = load i32, i32* %2, align 4
  %91 = sext i32 %90 to i64
  %92 = getelementptr inbounds [100 x [100 x i8]], [100 x [100 x i8]]* %7, i64 0, i64 %91
  %93 = load i32, i32* %3, align 4
  %94 = sext i32 %93 to i64
  %95 = getelementptr inbounds [100 x i8], [100 x i8]* %92, i64 0, i64 %94
  store i8 %89, i8* %95, align 1
  br label %142

96:                                               ; preds = %51
  %97 = load i32, i32* %2, align 4
  %98 = sext i32 %97 to i64
  %99 = getelementptr inbounds [100 x [100 x i8]], [100 x [100 x i8]]* %5, i64 0, i64 %98
  %100 = load i32, i32* %3, align 4
  %101 = sub nsw i32 %100, 1
  %102 = sext i32 %101 to i64
  %103 = getelementptr inbounds [100 x i8], [100 x i8]* %99, i64 0, i64 %102
  %104 = load i8, i8* %103, align 1
  %105 = sext i8 %104 to i32
  %106 = sub nsw i32 %105, 49
  %107 = add nsw i32 %106, 48
  %108 = trunc i32 %107 to i8
  %109 = load i32, i32* %2, align 4
  %110 = sext i32 %109 to i64
  %111 = getelementptr inbounds [100 x [100 x i8]], [100 x [100 x i8]]* %5, i64 0, i64 %110
  %112 = load i32, i32* %3, align 4
  %113 = sub nsw i32 %112, 1
  %114 = sext i32 %113 to i64
  %115 = getelementptr inbounds [100 x i8], [100 x i8]* %111, i64 0, i64 %114
  store i8 %108, i8* %115, align 1
  %116 = load i32, i32* %2, align 4
  %117 = sext i32 %116 to i64
  %118 = getelementptr inbounds [100 x [100 x i8]], [100 x [100 x i8]]* %5, i64 0, i64 %117
  %119 = load i32, i32* %3, align 4
  %120 = sext i32 %119 to i64
  %121 = getelementptr inbounds [100 x i8], [100 x i8]* %118, i64 0, i64 %120
  %122 = load i8, i8* %121, align 1
  %123 = sext i8 %122 to i32
  %124 = load i32, i32* %2, align 4
  %125 = sext i32 %124 to i64
  %126 = getelementptr inbounds [100 x [100 x i8]], [100 x [100 x i8]]* %6, i64 0, i64 %125
  %127 = load i32, i32* %4, align 4
  %128 = sext i32 %127 to i64
  %129 = getelementptr inbounds [100 x i8], [100 x i8]* %126, i64 0, i64 %128
  %130 = load i8, i8* %129, align 1
  %131 = sext i8 %130 to i32
  %132 = sub nsw i32 %123, %131
  %133 = add nsw i32 %132, 48
  %134 = add nsw i32 %133, 10
  %135 = trunc i32 %134 to i8
  %136 = load i32, i32* %2, align 4
  %137 = sext i32 %136 to i64
  %138 = getelementptr inbounds [100 x [100 x i8]], [100 x [100 x i8]]* %7, i64 0, i64 %137
  %139 = load i32, i32* %3, align 4
  %140 = sext i32 %139 to i64
  %141 = getelementptr inbounds [100 x i8], [100 x i8]* %138, i64 0, i64 %140
  store i8 %135, i8* %141, align 1
  br label %142

142:                                              ; preds = %96, %70
  br label %143

143:                                              ; preds = %142
  %144 = load i32, i32* %3, align 4
  %145 = add nsw i32 %144, -1
  store i32 %145, i32* %3, align 4
  %146 = load i32, i32* %4, align 4
  %147 = add nsw i32 %146, -1
  store i32 %147, i32* %4, align 4
  br label %42

148:                                              ; preds = %42
  %149 = load i32, i32* %8, align 4
  %150 = load i32, i32* %9, align 4
  %151 = sub nsw i32 %149, %150
  %152 = sub nsw i32 %151, 1
  store i32 %152, i32* %3, align 4
  br label %153

153:                                              ; preds = %218, %148
  %154 = load i32, i32* %3, align 4
  %155 = icmp sge i32 %154, 0
  br i1 %155, label %156, label %221

156:                                              ; preds = %153
  %157 = load i32, i32* %2, align 4
  %158 = sext i32 %157 to i64
  %159 = getelementptr inbounds [100 x [100 x i8]], [100 x [100 x i8]]* %5, i64 0, i64 %158
  %160 = load i32, i32* %3, align 4
  %161 = sext i32 %160 to i64
  %162 = getelementptr inbounds [100 x i8], [100 x i8]* %159, i64 0, i64 %161
  %163 = load i8, i8* %162, align 1
  %164 = sext i8 %163 to i32
  %165 = icmp sge i32 %164, 0
  br i1 %165, label %166, label %180

166:                                              ; preds = %156
  %167 = load i32, i32* %2, align 4
  %168 = sext i32 %167 to i64
  %169 = getelementptr inbounds [100 x [100 x i8]], [100 x [100 x i8]]* %5, i64 0, i64 %168
  %170 = load i32, i32* %3, align 4
  %171 = sext i32 %170 to i64
  %172 = getelementptr inbounds [100 x i8], [100 x i8]* %169, i64 0, i64 %171
  %173 = load i8, i8* %172, align 1
  %174 = load i32, i32* %2, align 4
  %175 = sext i32 %174 to i64
  %176 = getelementptr inbounds [100 x [100 x i8]], [100 x [100 x i8]]* %7, i64 0, i64 %175
  %177 = load i32, i32* %3, align 4
  %178 = sext i32 %177 to i64
  %179 = getelementptr inbounds [100 x i8], [100 x i8]* %176, i64 0, i64 %178
  store i8 %173, i8* %179, align 1
  br label %217

180:                                              ; preds = %156
  %181 = load i32, i32* %2, align 4
  %182 = sext i32 %181 to i64
  %183 = getelementptr inbounds [100 x [100 x i8]], [100 x [100 x i8]]* %5, i64 0, i64 %182
  %184 = load i32, i32* %3, align 4
  %185 = sub nsw i32 %184, 1
  %186 = sext i32 %185 to i64
  %187 = getelementptr inbounds [100 x i8], [100 x i8]* %183, i64 0, i64 %186
  %188 = load i8, i8* %187, align 1
  %189 = sext i8 %188 to i32
  %190 = sub nsw i32 %189, 49
  %191 = add nsw i32 %190, 48
  %192 = trunc i32 %191 to i8
  %193 = load i32, i32* %2, align 4
  %194 = sext i32 %193 to i64
  %195 = getelementptr inbounds [100 x [100 x i8]], [100 x [100 x i8]]* %5, i64 0, i64 %194
  %196 = load i32, i32* %3, align 4
  %197 = sub nsw i32 %196, 1
  %198 = sext i32 %197 to i64
  %199 = getelementptr inbounds [100 x i8], [100 x i8]* %195, i64 0, i64 %198
  store i8 %192, i8* %199, align 1
  %200 = load i32, i32* %2, align 4
  %201 = sext i32 %200 to i64
  %202 = getelementptr inbounds [100 x [100 x i8]], [100 x [100 x i8]]* %5, i64 0, i64 %201
  %203 = load i32, i32* %3, align 4
  %204 = sext i32 %203 to i64
  %205 = getelementptr inbounds [100 x i8], [100 x i8]* %202, i64 0, i64 %204
  %206 = load i8, i8* %205, align 1
  %207 = sext i8 %206 to i32
  %208 = add nsw i32 %207, 48
  %209 = add nsw i32 %208, 10
  %210 = trunc i32 %209 to i8
  %211 = load i32, i32* %2, align 4
  %212 = sext i32 %211 to i64
  %213 = getelementptr inbounds [100 x [100 x i8]], [100 x [100 x i8]]* %7, i64 0, i64 %212
  %214 = load i32, i32* %3, align 4
  %215 = sext i32 %214 to i64
  %216 = getelementptr inbounds [100 x i8], [100 x i8]* %213, i64 0, i64 %215
  store i8 %210, i8* %216, align 1
  br label %217

217:                                              ; preds = %180, %166
  br label %218

218:                                              ; preds = %217
  %219 = load i32, i32* %3, align 4
  %220 = add nsw i32 %219, -1
  store i32 %220, i32* %3, align 4
  br label %153

221:                                              ; preds = %153
  br label %222

222:                                              ; preds = %221
  %223 = load i32, i32* %2, align 4
  %224 = add nsw i32 %223, 1
  store i32 %224, i32* %2, align 4
  br label %12

225:                                              ; preds = %12
  store i32 0, i32* %2, align 4
  br label %226

226:                                              ; preds = %236, %225
  %227 = load i32, i32* %2, align 4
  %228 = load i32, i32* %1, align 4
  %229 = icmp slt i32 %227, %228
  br i1 %229, label %230, label %239

230:                                              ; preds = %226
  %231 = load i32, i32* %2, align 4
  %232 = sext i32 %231 to i64
  %233 = getelementptr inbounds [100 x [100 x i8]], [100 x [100 x i8]]* %7, i64 0, i64 %232
  %234 = getelementptr inbounds [100 x i8], [100 x i8]* %233, i64 0, i64 0
  %235 = call i32 (i8*, ...) @printf(i8* getelementptr inbounds ([4 x i8], [4 x i8]* @.str.2, i64 0, i64 0), i8* %234)
  br label %236

236:                                              ; preds = %230
  %237 = load i32, i32* %2, align 4
  %238 = add nsw i32 %237, 1
  store i32 %238, i32* %2, align 4
  br label %226

239:                                              ; preds = %226
  ret void
}

; Function Attrs: argmemonly nounwind willreturn
declare void @llvm.memset.p0i8.i64(i8* nocapture writeonly, i8, i64, i1 immarg) #1

declare dso_local i32 @__isoc99_scanf(i8*, ...) #2

; Function Attrs: nounwind readonly
declare dso_local i64 @strlen(i8*) #3

declare dso_local i32 @printf(i8*, ...) #2


!llvm.module.flags = !{!0}
!llvm.ident = !{!1}

!0 = !{i32 1, !"wchar_size", i32 4}
!1 = !{!"clang version 10.0.0-4ubuntu1 "}
